target datalayout = "e-m:e-p270:32:32-p271:32:32-p272:64:64-i64:64-i128:128-f80:128-n8:16:32:64-S128"
target triple = "x86_64-pc-linux-gnu"

%"class.cv::Mat" = type { i32, i32, i32, i32, ptr, ptr, ptr, ptr, ptr, ptr, %"struct.cv::MatSize", %"struct.cv::MatStep" }
%"struct.cv::MatSize" = type { ptr }
%"struct.cv::MatStep" = type { ptr, [2 x i64] }
%"class.cv::Size_" = type { i32, i32 }
%"class.cv::_InputArray" = type { i32, ptr, %"class.cv::Size_" }
%"class.cv::_OutputArray" = type { %"class.cv::_InputArray" }

; Function Attrs: inlinehint mustprogress uwtable
define linkonce_odr hidden void @_ZN2cv11_InputArrayC2Ev(ptr noundef nonnull align 8 dereferenceable(24) %0) unnamed_addr #2 comdat align 2 {
  %2 = alloca ptr, align 8
  store ptr %0, ptr %2, align 8, !tbaa !3
  %3 = load ptr, ptr %2, align 8
  %4 = getelementptr inbounds nuw %"class.cv::_InputArray", ptr %3, i32 0, i32 2
  call void @_ZN2cv5Size_IiEC2Ev(ptr noundef nonnull align 4 dereferenceable(8) %4)
  call void @_ZN2cv11_InputArray4initEiPKv(ptr noundef nonnull align 8 dereferenceable(24) %3, i32 noundef 0, ptr noundef null)
  ret void
}

; Function Attrs: inlinehint mustprogress nounwind uwtable
define linkonce_odr hidden void @_ZN2cv11_InputArray4initEiPKv(ptr noundef nonnull align 8 dereferenceable(24) %0, i32 noundef %1, ptr noundef %2) #7 comdat align 2 {
  %4 = alloca ptr, align 8
  %5 = alloca i32, align 4
  %6 = alloca ptr, align 8
  store ptr %0, ptr %4, align 8, !tbaa !3
  store i32 %1, ptr %5, align 4, !tbaa !10
  store ptr %2, ptr %6, align 8, !tbaa !112
  %7 = load ptr, ptr %4, align 8
  %8 = load i32, ptr %5, align 4, !tbaa !10
  %9 = getelementptr inbounds nuw %"class.cv::_InputArray", ptr %7, i32 0, i32 0
  store i32 %8, ptr %9, align 8, !tbaa !184
  %10 = load ptr, ptr %6, align 8, !tbaa !112
  %11 = getelementptr inbounds nuw %"class.cv::_InputArray", ptr %7, i32 0, i32 1
  store ptr %10, ptr %11, align 8, !tbaa !26
  ret void
}

; Function Attrs: inlinehint mustprogress nounwind uwtable
define linkonce_odr hidden void @_ZN2cv5Size_IiEC2Ev(ptr noundef nonnull align 4 dereferenceable(8) %0) unnamed_addr #7 comdat align 2 {
  %2 = alloca ptr, align 8
  store ptr %0, ptr %2, align 8, !tbaa !89
  %3 = load ptr, ptr %2, align 8
  %4 = getelementptr inbounds nuw %"class.cv::Size_", ptr %3, i32 0, i32 0
  store i32 0, ptr %4, align 4, !tbaa !91
  %5 = getelementptr inbounds nuw %"class.cv::Size_", ptr %3, i32 0, i32 1
  store i32 0, ptr %5, align 4, !tbaa !92
  ret void
}

; Function Attrs: inlinehint mustprogress nounwind uwtable
define linkonce_odr hidden void @_ZN2cv11_InputArrayD2Ev(ptr noundef nonnull align 8 dereferenceable(24) %0) unnamed_addr #7 comdat align 2 {
  %2 = alloca ptr, align 8
  store ptr %0, ptr %2, align 8, !tbaa !3
  ret void
}

; Function Attrs: inlinehint mustprogress uwtable
define linkonce_odr hidden void @_ZN2cv12_OutputArrayC2ERNS_3MatE(ptr noundef nonnull align 8 dereferenceable(24) %0, ptr noundef nonnull align 8 dereferenceable(96) %1) unnamed_addr #2 comdat align 2 {
  %3 = alloca ptr, align 8
  %4 = alloca ptr, align 8
  store ptr %0, ptr %3, align 8, !tbaa !8
  store ptr %1, ptr %4, align 8, !tbaa !31
  %5 = load ptr, ptr %3, align 8
  call void @_ZN2cv11_InputArrayC2Ev(ptr noundef nonnull align 8 dereferenceable(24) %5)
  %6 = load ptr, ptr %4, align 8, !tbaa !31
  call void @_ZN2cv11_InputArray4initEiPKv(ptr noundef nonnull align 8 dereferenceable(24) %5, i32 noundef 33619968, ptr noundef %6)
  ret void
}

; Function Attrs: inlinehint mustprogress uwtable
define linkonce_odr hidden void @_ZN2cv11_InputArrayC2ERKNS_3MatE(ptr noundef nonnull align 8 dereferenceable(24) %0, ptr noundef nonnull align 8 dereferenceable(96) %1) unnamed_addr #2 comdat align 2 {
  %3 = alloca ptr, align 8
  %4 = alloca ptr, align 8
  store ptr %0, ptr %3, align 8, !tbaa !3
  store ptr %1, ptr %4, align 8, !tbaa !31
  %5 = load ptr, ptr %3, align 8
  %6 = getelementptr inbounds nuw %"class.cv::_InputArray", ptr %5, i32 0, i32 2
  call void @_ZN2cv5Size_IiEC2Ev(ptr noundef nonnull align 4 dereferenceable(8) %6)
  %7 = load ptr, ptr %4, align 8, !tbaa !31
  call void @_ZN2cv11_InputArray4initEiPKv(ptr noundef nonnull align 8 dereferenceable(24) %5, i32 noundef 16842752, ptr noundef %7)
  ret void
}

; Function Attrs: inlinehint mustprogress uwtable
define internal noundef nonnull align 8 dereferenceable(96) ptr @_ZN2cvmLERNS_3MatERKd(ptr noundef nonnull align 8 dereferenceable(96) %0, ptr noundef nonnull align 8 dereferenceable(8) %1) #2 personality ptr @__gxx_personality_v0 {
  %3 = alloca ptr, align 8
  %4 = alloca ptr, align 8
  %5 = alloca %"class.cv::_OutputArray", align 8
  %6 = alloca ptr, align 8
  %7 = alloca i32, align 4
  store ptr %0, ptr %3, align 8, !tbaa !31
  store ptr %1, ptr %4, align 8, !tbaa !146
  %8 = load ptr, ptr %3, align 8, !tbaa !31
  call void @llvm.lifetime.start.p0(i64 24, ptr %5) #17
  %9 = load ptr, ptr %3, align 8, !tbaa !31
  call void @_ZN2cv12_OutputArrayC2ERNS_3MatE(ptr noundef nonnull align 8 dereferenceable(24) %5, ptr noundef nonnull align 8 dereferenceable(96) %9)
  %10 = load ptr, ptr %4, align 8, !tbaa !146
  %11 = load double, ptr %10, align 8, !tbaa !12
  invoke void @_ZNK2cv3Mat9convertToERKNS_12_OutputArrayEidd(ptr noundef nonnull align 8 dereferenceable(96) %8, ptr noundef nonnull align 8 dereferenceable(24) %5, i32 noundef -1, double noundef %11, double noundef 0.000000e+00)
          to label %12 unwind label %14

12:                                               ; preds = %2
  call void @_ZN2cv11_InputArrayD2Ev(ptr noundef nonnull align 8 dereferenceable(24) %5) #17
  call void @llvm.lifetime.end.p0(i64 24, ptr %5) #17
  %13 = load ptr, ptr %3, align 8, !tbaa !31
  ret ptr %13

14:                                               ; preds = %2
  %15 = landingpad { ptr, i32 }
          cleanup
  %16 = extractvalue { ptr, i32 } %15, 0
  store ptr %16, ptr %6, align 8
  %17 = extractvalue { ptr, i32 } %15, 1
  store i32 %17, ptr %7, align 4
  call void @_ZN2cv11_InputArrayD2Ev(ptr noundef nonnull align 8 dereferenceable(24) %5) #17
  call void @llvm.lifetime.end.p0(i64 24, ptr %5) #17
  br label %18

18:                                               ; preds = %14
  %19 = load ptr, ptr %6, align 8
  %20 = load i32, ptr %7, align 4
  %21 = insertvalue { ptr, i32 } poison, ptr %19, 0
  %22 = insertvalue { ptr, i32 } %21, i32 %20, 1
  resume { ptr, i32 } %22
}

; Function Attrs: inlinehint mustprogress nounwind uwtable
define linkonce_odr hidden noundef nonnull align 4 dereferenceable(4) ptr @_ZN2cv3Mat2atIfEERT_ii(ptr noundef nonnull align 8 dereferenceable(96) %0, i32 noundef %1, i32 noundef %2) #7 comdat align 2 {
  %4 = alloca ptr, align 8
  %5 = alloca i32, align 4
  %6 = alloca i32, align 4
  store ptr %0, ptr %4, align 8, !tbaa !31
  store i32 %1, ptr %5, align 4, !tbaa !10
  store i32 %2, ptr %6, align 4, !tbaa !10
  %7 = load ptr, ptr %4, align 8
  %8 = getelementptr inbounds nuw %"class.cv::Mat", ptr %7, i32 0, i32 4
  %9 = load ptr, ptr %8, align 8, !tbaa !62
  %10 = getelementptr inbounds nuw %"class.cv::Mat", ptr %7, i32 0, i32 11
  %11 = getelementptr inbounds nuw %"struct.cv::MatStep", ptr %10, i32 0, i32 0
  %12 = load ptr, ptr %11, align 8, !tbaa !145
  %13 = getelementptr inbounds i64, ptr %12, i64 0
  %14 = load i64, ptr %13, align 8, !tbaa !42
  %15 = load i32, ptr %5, align 4, !tbaa !10
  %16 = sext i32 %15 to i64
  %17 = mul i64 %14, %16
  %18 = getelementptr inbounds nuw i8, ptr %9, i64 %17
  %19 = load i32, ptr %6, align 4, !tbaa !10
  %20 = sext i32 %19 to i64
  %21 = getelementptr inbounds float, ptr %18, i64 %20
  ret ptr %21
}

; Function Attrs: mustprogress uwtable
define internal void @_ZN2cv7optflowL2wdERNS_3MatEiiiid(ptr noundef nonnull align 8 dereferenceable(96) %0, i32 noundef %1, i32 noundef %2, i32 noundef %3, i32 noundef %4, double noundef %5) #0 personality ptr @__gxx_personality_v0 {
  %7 = alloca ptr, align 8
  %8 = alloca i32, align 4
  %9 = alloca i32, align 4
  %10 = alloca i32, align 4
  %11 = alloca i32, align 4
  %12 = alloca double, align 8
  %13 = alloca i32, align 4
  %14 = alloca i32, align 4
  %15 = alloca i32, align 4
  %16 = alloca i32, align 4
  %17 = alloca i32, align 4
  %18 = alloca double, align 8
  %19 = alloca %"class.cv::_InputArray", align 8
  %20 = alloca %"class.cv::_OutputArray", align 8
  %21 = alloca ptr, align 8
  %22 = alloca i32, align 4
  store ptr %0, ptr %7, align 8, !tbaa !31
  store i32 %1, ptr %8, align 4, !tbaa !10
  store i32 %2, ptr %9, align 4, !tbaa !10
  store i32 %3, ptr %10, align 4, !tbaa !10
  store i32 %4, ptr %11, align 4, !tbaa !10
  store double %5, ptr %12, align 8, !tbaa !12
  call void @llvm.lifetime.start.p0(i64 4, ptr %13) #17
  %23 = load i32, ptr %8, align 4, !tbaa !10
  %24 = sub nsw i32 0, %23
  store i32 %24, ptr %13, align 4, !tbaa !10
  call void @llvm.lifetime.start.p0(i64 4, ptr %14) #17
  store i32 0, ptr %14, align 4, !tbaa !10
  br label %25

25:                                               ; preds = %58, %6
  %26 = load i32, ptr %13, align 4, !tbaa !10
  %27 = load i32, ptr %9, align 4, !tbaa !10
  %28 = icmp sle i32 %26, %27
  br i1 %28, label %30, label %29

29:                                               ; preds = %25
  store i32 2, ptr %15, align 4
  call void @llvm.lifetime.end.p0(i64 4, ptr %14) #17
  call void @llvm.lifetime.end.p0(i64 4, ptr %13) #17
  br label %63

30:                                               ; preds = %25
  call void @llvm.lifetime.start.p0(i64 4, ptr %16) #17
  %31 = load i32, ptr %10, align 4, !tbaa !10
  %32 = sub nsw i32 0, %31
  store i32 %32, ptr %16, align 4, !tbaa !10
  call void @llvm.lifetime.start.p0(i64 4, ptr %17) #17
  store i32 0, ptr %17, align 4, !tbaa !10
  br label %33

33:                                               ; preds = %52, %30
  %34 = load i32, ptr %16, align 4, !tbaa !10
  %35 = load i32, ptr %11, align 4, !tbaa !10
  %36 = icmp sle i32 %34, %35
  br i1 %36, label %38, label %37

37:                                               ; preds = %33
  store i32 5, ptr %15, align 4
  call void @llvm.lifetime.end.p0(i64 4, ptr %17) #17
  call void @llvm.lifetime.end.p0(i64 4, ptr %16) #17
  br label %57

38:                                               ; preds = %33
  %39 = load i32, ptr %13, align 4, !tbaa !10
  %40 = load i32, ptr %13, align 4, !tbaa !10
  %41 = mul nsw i32 %39, %40
  %42 = load i32, ptr %16, align 4, !tbaa !10
  %43 = load i32, ptr %16, align 4, !tbaa !10
  %44 = mul nsw i32 %42, %43
  %45 = add nsw i32 %41, %44
  %46 = sub nsw i32 0, %45
  %47 = sitofp i32 %46 to float
  %48 = load ptr, ptr %7, align 8, !tbaa !31
  %49 = load i32, ptr %14, align 4, !tbaa !10
  %50 = load i32, ptr %17, align 4, !tbaa !10
  %51 = call noundef nonnull align 4 dereferenceable(4) ptr @_ZN2cv3Mat2atIfEERT_ii(ptr noundef nonnull align 8 dereferenceable(96) %48, i32 noundef %49, i32 noundef %50)
  store float %47, ptr %51, align 4, !tbaa !59
  br label %52

52:                                               ; preds = %38
  %53 = load i32, ptr %16, align 4, !tbaa !10
  %54 = add nsw i32 %53, 1
  store i32 %54, ptr %16, align 4, !tbaa !10
  %55 = load i32, ptr %17, align 4, !tbaa !10
  %56 = add nsw i32 %55, 1
  store i32 %56, ptr %17, align 4, !tbaa !10
  br label %33, !llvm.loop !117

57:                                               ; preds = %37
  br label %58

58:                                               ; preds = %57
  %59 = load i32, ptr %13, align 4, !tbaa !10
  %60 = add nsw i32 %59, 1
  store i32 %60, ptr %13, align 4, !tbaa !10
  %61 = load i32, ptr %14, align 4, !tbaa !10
  %62 = add nsw i32 %61, 1
  store i32 %62, ptr %14, align 4, !tbaa !10
  br label %25, !llvm.loop !118

63:                                               ; preds = %29
  call void @llvm.lifetime.start.p0(i64 8, ptr %18) #17
  %64 = load double, ptr %12, align 8, !tbaa !12
  %65 = fmul double 2.000000e+00, %64
  %66 = load double, ptr %12, align 8, !tbaa !12
  %67 = fmul double %65, %66
  %68 = fdiv double 1.000000e+00, %67
  store double %68, ptr %18, align 8, !tbaa !12
  %69 = load ptr, ptr %7, align 8, !tbaa !31
  %70 = call noundef nonnull align 8 dereferenceable(96) ptr @_ZN2cvmLERNS_3MatERKd(ptr noundef nonnull align 8 dereferenceable(96) %69, ptr noundef nonnull align 8 dereferenceable(8) %18)
  call void @llvm.lifetime.end.p0(i64 8, ptr %18) #17
  call void @llvm.lifetime.start.p0(i64 24, ptr %19) #17
  %71 = load ptr, ptr %7, align 8, !tbaa !31
  call void @_ZN2cv11_InputArrayC2ERKNS_3MatE(ptr noundef nonnull align 8 dereferenceable(24) %19, ptr noundef nonnull align 8 dereferenceable(96) %71)
  call void @llvm.lifetime.start.p0(i64 24, ptr %20) #17
  %72 = load ptr, ptr %7, align 8, !tbaa !31
  invoke void @_ZN2cv12_OutputArrayC2ERNS_3MatE(ptr noundef nonnull align 8 dereferenceable(24) %20, ptr noundef nonnull align 8 dereferenceable(96) %72)
          to label %73 unwind label %75

73:                                               ; preds = %63
  invoke void @_ZN2cv3expERKNS_11_InputArrayERKNS_12_OutputArrayE(ptr noundef nonnull align 8 dereferenceable(24) %19, ptr noundef nonnull align 8 dereferenceable(24) %20)
          to label %74 unwind label %79

74:                                               ; preds = %73
  call void @_ZN2cv11_InputArrayD2Ev(ptr noundef nonnull align 8 dereferenceable(24) %20) #17
  call void @llvm.lifetime.end.p0(i64 24, ptr %20) #17
  call void @_ZN2cv11_InputArrayD2Ev(ptr noundef nonnull align 8 dereferenceable(24) %19) #17
  call void @llvm.lifetime.end.p0(i64 24, ptr %19) #17
  ret void

75:                                               ; preds = %63
  %76 = landingpad { ptr, i32 }
          cleanup
  %77 = extractvalue { ptr, i32 } %76, 0
  store ptr %77, ptr %21, align 8
  %78 = extractvalue { ptr, i32 } %76, 1
  store i32 %78, ptr %22, align 4
  br label %83

79:                                               ; preds = %73
  %80 = landingpad { ptr, i32 }
          cleanup
  %81 = extractvalue { ptr, i32 } %80, 0
  store ptr %81, ptr %21, align 8
  %82 = extractvalue { ptr, i32 } %80, 1
  store i32 %82, ptr %22, align 4
  call void @_ZN2cv11_InputArrayD2Ev(ptr noundef nonnull align 8 dereferenceable(24) %20) #17
  br label %83

83:                                               ; preds = %79, %75
  call void @llvm.lifetime.end.p0(i64 24, ptr %20) #17
  call void @_ZN2cv11_InputArrayD2Ev(ptr noundef nonnull align 8 dereferenceable(24) %19) #17
  call void @llvm.lifetime.end.p0(i64 24, ptr %19) #17
  br label %84

84:                                               ; preds = %83
  %85 = load ptr, ptr %21, align 8
  %86 = load i32, ptr %22, align 4
  %87 = insertvalue { ptr, i32 } poison, ptr %85, 0
  %88 = insertvalue { ptr, i32 } %87, i32 %86, 1
  resume { ptr, i32 } %88
}