; Function Attrs: mustprogress uwtable
define internal fastcc void @_ZN2cv7optflowL2wdERNS_3MatEiiiid(ptr noundef nonnull align 8 dereferenceable(96) %0, i32 noundef %1, i32 noundef %2, i32 noundef %3, i32 noundef %4, double noundef %5) unnamed_addr #0 personality ptr @__gxx_personality_v0 {
  %7 = alloca %"class.cv::_OutputArray", align 8
  %8 = alloca %"class.cv::_InputArray", align 8
  %9 = alloca %"class.cv::_OutputArray", align 8
  %10 = sub nsw i32 0, %1
  %.not33 = icmp slt i32 %2, %10
  br i1 %.not33, label %._crit_edge38, label %.lr.ph37

.lr.ph37:                                         ; preds = %6
  %11 = sub nsw i32 0, %3
  %.not2930 = icmp slt i32 %4, %11
  %12 = getelementptr inbounds nuw i8, ptr %0, i64 16
  %13 = load ptr, ptr %12, align 8
  br i1 %.not2930, label %._crit_edge38, label %.lr.ph37.split

.lr.ph37.split:                                   ; preds = %.lr.ph37
  %14 = getelementptr inbounds nuw i8, ptr %0, i64 72
  %15 = load ptr, ptr %14, align 8
  %16 = load i64, ptr %15, align 8, !tbaa !105
  %17 = add i32 %4, %3
  %18 = add i32 %17, 1
  %19 = add i32 %2, %1
  %20 = add i32 %19, 1
  %wide.trip.count44 = zext i32 %20 to i64
  %wide.trip.count = zext i32 %18 to i64
  br label %.lr.ph

.lr.ph:                                           ; preds = %.lr.ph37.split, %._crit_edge
  %indvars.iv41 = phi i64 [ 0, %.lr.ph37.split ], [ %indvars.iv.next42, %._crit_edge ]
  %.02734 = phi i32 [ %10, %.lr.ph37.split ], [ %24, %._crit_edge ]
  %21 = mul nsw i32 %.02734, %.02734
  %22 = mul i64 %16, %indvars.iv41
  %23 = getelementptr inbounds nuw i8, ptr %13, i64 %22
  br label %25

._crit_edge:                                      ; preds = %25
  %24 = add nsw i32 %.02734, 1
  %indvars.iv.next42 = add nuw nsw i64 %indvars.iv41, 1
  %exitcond45.not = icmp eq i64 %indvars.iv.next42, %wide.trip.count44
  br i1 %exitcond45.not, label %._crit_edge38, label %.lr.ph, !llvm.loop !169

25:                                               ; preds = %.lr.ph, %25
  %indvars.iv = phi i64 [ 0, %.lr.ph ], [ %indvars.iv.next, %25 ]
  %.02531 = phi i32 [ %11, %.lr.ph ], [ %31, %25 ]
  %26 = mul nsw i32 %.02531, %.02531
  %27 = add nuw nsw i32 %21, %26
  %28 = sub nsw i32 0, %27
  %29 = sitofp i32 %28 to float
  %30 = getelementptr inbounds nuw float, ptr %23, i64 %indvars.iv
  store float %29, ptr %30, align 4, !tbaa !106
  %31 = add nsw i32 %.02531, 1
  %indvars.iv.next = add nuw nsw i64 %indvars.iv, 1
  %exitcond.not = icmp eq i64 %indvars.iv.next, %wide.trip.count
  br i1 %exitcond.not, label %._crit_edge, label %25, !llvm.loop !170

._crit_edge38:                                    ; preds = %._crit_edge, %.lr.ph37, %6
  %32 = fmul double %5, 2.000000e+00
  %33 = fmul double %5, %32
  %34 = fdiv double 1.000000e+00, %33
  call void @llvm.lifetime.start.p0(i64 24, ptr nonnull %7) #19
  %35 = getelementptr inbounds nuw i8, ptr %7, i64 8
  %36 = getelementptr inbounds nuw i8, ptr %7, i64 16
  store i64 0, ptr %36, align 8
  store i32 33619968, ptr %7, align 8, !tbaa !58
  store ptr %0, ptr %35, align 8, !tbaa !6
  call void @_ZNK2cv3Mat9convertToERKNS_12_OutputArrayEidd(ptr noundef nonnull align 8 dereferenceable(96) %0, ptr noundef nonnull align 8 dereferenceable(24) %7, i32 noundef -1, double noundef %34, double noundef 0.000000e+00)
  call void @llvm.lifetime.end.p0(i64 24, ptr nonnull %7) #19
  call void @llvm.lifetime.start.p0(i64 24, ptr nonnull %8) #19
  %37 = getelementptr inbounds nuw i8, ptr %8, i64 16
  store i32 0, ptr %37, align 8, !tbaa !56
  %38 = getelementptr inbounds nuw i8, ptr %8, i64 20
  store i32 0, ptr %38, align 4, !tbaa !57
  store i32 16842752, ptr %8, align 8, !tbaa !58
  %39 = getelementptr inbounds nuw i8, ptr %8, i64 8
  store ptr %0, ptr %39, align 8, !tbaa !6
  call void @llvm.lifetime.start.p0(i64 24, ptr nonnull %9) #19
  %40 = getelementptr inbounds nuw i8, ptr %9, i64 8
  %41 = getelementptr inbounds nuw i8, ptr %9, i64 16
  store i64 0, ptr %41, align 8
  store i32 33619968, ptr %9, align 8, !tbaa !58
  store ptr %0, ptr %40, align 8, !tbaa !6
  call void @_ZN2cv3expERKNS_11_InputArrayERKNS_12_OutputArrayE(ptr noundef nonnull align 8 dereferenceable(24) %8, ptr noundef nonnull align 8 dereferenceable(24) %9)
  call void @llvm.lifetime.end.p0(i64 24, ptr nonnull %9) #19
  call void @llvm.lifetime.end.p0(i64 24, ptr nonnull %8) #19
  ret void
}